; Function Attrs: mustprogress uwtable
define void @_ZN7rocksdb17PosixWritableFile9RangeSyncEmmRKNS_9IOOptionsEPNS_14IODebugContextE(ptr noalias sret(%"class.rocksdb::IOStatus") align 8 %agg.result, ptr noundef nonnull align 8 dereferenceable(99) %this, i64 noundef %offset, i64 noundef %nbytes, ptr noundef nonnull align 8 dereferenceable(83) %opts, ptr noundef %dbg) unnamed_addr #0 align 2 personality ptr @__gxx_personality_v0 {
entry:
  %ref.tmp = alloca %"class.std::__cxx11::basic_string", align 8
  %ref.tmp7 = alloca %"class.std::__cxx11::basic_string", align 8
  %sync_file_range_supported_ = getelementptr inbounds i8, ptr %this, i64 98
  %0 = load i8, ptr %sync_file_range_supported_, align 2
  %1 = and i8 %0, 1
  %tobool.not = icmp eq i8 %1, 0
  br i1 %tobool.not, label %if.end12, label %if.then

if.then:                                          ; preds = %entry
  %strict_bytes_per_sync_ = getelementptr inbounds i8, ptr %this, i64 32
  %2 = load i8, ptr %strict_bytes_per_sync_, align 8
  %3 = and i8 %2, 1
  %tobool2.not = icmp eq i8 %3, 0
  %fd_4 = getelementptr inbounds i8, ptr %this, i64 76
  %4 = load i32, ptr %fd_4, align 4
  br i1 %tobool2.not, label %if.else, label %if.then3

if.then3:                                         ; preds = %if.then
  %add = add i64 %nbytes, %offset
  %call = tail call i32 @sync_file_range(i32 noundef %4, i64 noundef 0, i64 noundef %add, i32 noundef 3)
  br label %if.end

if.else:                                          ; preds = %if.then
  %call5 = tail call i32 @sync_file_range(i32 noundef %4, i64 noundef %offset, i64 noundef %nbytes, i32 noundef 2)
  br label %if.end

if.end:                                           ; preds = %if.else, %if.then3
  %ret.0 = phi i32 [ %call, %if.then3 ], [ %call5, %if.else ]
  %cmp.not = icmp eq i32 %ret.0, 0
  br i1 %cmp.not, label %if.end11, label %if.then6

if.then6:                                         ; preds = %if.end
  call void @_ZNSt7__cxx119to_stringEi(ptr nonnull sret(%"class.std::__cxx11::basic_string") align 8 %ref.tmp7, i32 noundef %ret.0) #25
  %call.i7 = invoke noundef nonnull align 8 dereferenceable(32) ptr @_ZNSt7__cxx1112basic_stringIcSt11char_traitsIcESaIcEE6insertEmPKc(ptr noundef nonnull align 8 dereferenceable(32) %ref.tmp7, i64 noundef 0, ptr noundef nonnull @.str.50)
          to label %invoke.cont unwind label %lpad

invoke.cont:                                      ; preds = %if.then6
  call void @_ZNSt7__cxx1112basic_stringIcSt11char_traitsIcESaIcEEC1EOS4_(ptr noundef nonnull align 8 dereferenceable(32) %ref.tmp, ptr noundef nonnull align 8 dereferenceable(32) %call.i7) #25
  %filename_ = getelementptr inbounds i8, ptr %this, i64 40
  %call8 = tail call ptr @__errno_location() #30
  %5 = load i32, ptr %call8, align 4
  invoke void @_ZN7rocksdb7IOErrorERKNSt7__cxx1112basic_stringIcSt11char_traitsIcESaIcEEES7_i(ptr sret(%"class.rocksdb::IOStatus") align 8 %agg.result, ptr noundef nonnull align 8 dereferenceable(32) %ref.tmp, ptr noundef nonnull align 8 dereferenceable(32) %filename_, i32 noundef %5)
          to label %invoke.cont10 unwind label %lpad9

invoke.cont10:                                    ; preds = %invoke.cont
  call void @_ZNSt7__cxx1112basic_stringIcSt11char_traitsIcESaIcEED1Ev(ptr noundef nonnull align 8 dereferenceable(32) %ref.tmp) #25
  call void @_ZNSt7__cxx1112basic_stringIcSt11char_traitsIcESaIcEED1Ev(ptr noundef nonnull align 8 dereferenceable(32) %ref.tmp7) #25
  br label %return

lpad:                                             ; preds = %if.then6
  %6 = landingpad { ptr, i32 }
          cleanup
  br label %ehcleanup

lpad9:                                            ; preds = %invoke.cont
  %7 = landingpad { ptr, i32 }
          cleanup
  call void @_ZNSt7__cxx1112basic_stringIcSt11char_traitsIcESaIcEED1Ev(ptr noundef nonnull align 8 dereferenceable(32) %ref.tmp) #25
  br label %ehcleanup

ehcleanup:                                        ; preds = %lpad9, %lpad
  %.pn = phi { ptr, i32 } [ %7, %lpad9 ], [ %6, %lpad ]
  call void @_ZNSt7__cxx1112basic_stringIcSt11char_traitsIcESaIcEED1Ev(ptr noundef nonnull align 8 dereferenceable(32) %ref.tmp7) #25
  resume { ptr, i32 } %.pn

if.end11:                                         ; preds = %if.end
  store i8 0, ptr %agg.result, align 8, !alias.scope !177
  %subcode_.i.i.i.i = getelementptr inbounds i8, ptr %agg.result, i64 1
  store i8 0, ptr %subcode_.i.i.i.i, align 1, !alias.scope !177
  %sev_.i.i.i.i = getelementptr inbounds i8, ptr %agg.result, i64 2
  %state_.i.i.i.i = getelementptr inbounds i8, ptr %agg.result, i64 8
  store ptr null, ptr %state_.i.i.i.i, align 8, !alias.scope !177
  store i32 0, ptr %sev_.i.i.i.i, align 2, !alias.scope !177
  br label %return

if.end12:                                         ; preds = %entry
  tail call void @llvm.experimental.noalias.scope.decl(metadata !180)
  %strict_bytes_per_sync_.i = getelementptr inbounds i8, ptr %this, i64 32
  %8 = load i8, ptr %strict_bytes_per_sync_.i, align 8, !noalias !180
  %9 = and i8 %8, 1
  %tobool.not.i = icmp eq i8 %9, 0
  br i1 %tobool.not.i, label %if.end.i, label %if.then.i

if.then.i:                                        ; preds = %if.end12
  %vtable.i = load ptr, ptr %this, align 8, !noalias !180
  %vfn.i = getelementptr inbounds i8, ptr %vtable.i, i64 72
  %10 = load ptr, ptr %vfn.i, align 8, !noalias !180
  tail call void %10(ptr sret(%"class.rocksdb::IOStatus") align 8 %agg.result, ptr noundef nonnull align 8 dereferenceable(33) %this, ptr noundef nonnull align 8 dereferenceable(83) %opts, ptr noundef %dbg)
  br label %return

if.end.i:                                         ; preds = %if.end12
  store i8 0, ptr %agg.result, align 8, !alias.scope !183
  %subcode_.i.i.i.i.i = getelementptr inbounds i8, ptr %agg.result, i64 1
  store i8 0, ptr %subcode_.i.i.i.i.i, align 1, !alias.scope !183
  %sev_.i.i.i.i.i = getelementptr inbounds i8, ptr %agg.result, i64 2
  %state_.i.i.i.i.i = getelementptr inbounds i8, ptr %agg.result, i64 8
  store ptr null, ptr %state_.i.i.i.i.i, align 8, !alias.scope !183
  store i32 0, ptr %sev_.i.i.i.i.i, align 2, !alias.scope !183
  br label %return

return:                                           ; preds = %if.end.i, %if.then.i, %if.end11, %invoke.cont10
  ret void
}